; Function Attrs: mustprogress nounwind uwtable
define void @_ZN3net15SpdyHeaderBlock16StringPieceProxyD2Ev(ptr noundef nonnull readonly align 8 captures(none) dereferenceable(41) %0) unnamed_addr #3 align 2 personality ptr @__gxx_personality_v0 {
  %2 = getelementptr inbounds nuw i8, ptr %0, i64 40
  %3 = load i8, ptr %2, align 8, !tbaa !20, !range !22, !noundef !23
  %4 = trunc nuw i8 %3 to i1
  br i1 %4, label %5, label %_ZN3net15SpdyHeaderBlock7Storage6RewindEN4base16BasicStringPieceINSt7__cxx1112basic_stringIcSt11char_traitsIcESaIcEEEEE.exit

5:                                                ; preds = %1
  %6 = getelementptr inbounds nuw i8, ptr %0, i64 16
  %7 = load ptr, ptr %0, align 8, !tbaa !3
  %8 = getelementptr inbounds nuw i8, ptr %7, i64 56
  %9 = load ptr, ptr %6, align 8, !tbaa !24
  %10 = icmp eq ptr %9, %8
  br i1 %10, label %11, label %_ZN3net15SpdyHeaderBlock7Storage6RewindEN4base16BasicStringPieceINSt7__cxx1112basic_stringIcSt11char_traitsIcESaIcEEEEE.exit

11:                                               ; preds = %5
  %12 = getelementptr inbounds nuw i8, ptr %0, i64 8
  %13 = load ptr, ptr %12, align 8, !tbaa !16
  %14 = getelementptr inbounds nuw i8, ptr %0, i64 24
  %.sroa.0.0.copyload = load ptr, ptr %14, align 8, !tbaa !18
  %.sroa.2.0..sroa_idx = getelementptr inbounds nuw i8, ptr %0, i64 32
  %.sroa.2.0.copyload = load i64, ptr %.sroa.2.0..sroa_idx, align 8, !tbaa !19
  invoke void @_ZN3net11UnsafeArena4FreeEPcm(ptr noundef nonnull align 8 dereferenceable(32) %13, ptr noundef %.sroa.0.0.copyload, i64 noundef %.sroa.2.0.copyload)
          to label %_ZN3net15SpdyHeaderBlock7Storage6RewindEN4base16BasicStringPieceINSt7__cxx1112basic_stringIcSt11char_traitsIcESaIcEEEEE.exit unwind label %15

_ZN3net15SpdyHeaderBlock7Storage6RewindEN4base16BasicStringPieceINSt7__cxx1112basic_stringIcSt11char_traitsIcESaIcEEEEE.exit: ; preds = %1, %11, %5
  ret void

15:                                               ; preds = %11
  %16 = landingpad { ptr, i32 }
          catch ptr null
  %17 = extractvalue { ptr, i32 } %16, 0
  tail call void @__clang_call_terminate(ptr %17) #18
  unreachable
}